target datalayout = "e-m:e-p270:32:32-p271:32:32-p272:64:64-i64:64-i128:128-f80:128-n8:16:32:64-S128"
target triple = "x86_64-unknown-linux-gnu"

%union.FP32 = type { i32 }

@_ZZ26bcdec__half_to_float_quicktE5magic = internal constant %union.FP32 { i32 947912704 }, align 4

; Function Attrs: mustprogress nounwind uwtable
define hidden noundef float @_Z26bcdec__half_to_float_quickt(i16 noundef zeroext %half) #4 {
entry:
  %half.addr = alloca i16, align 2
  %o = alloca %union.FP32, align 4
  %exp = alloca i32, align 4
  store i16 %half, ptr %half.addr, align 2
  %0 = load i16, ptr %half.addr, align 2
  %conv = zext i16 %0 to i32
  %and = and i32 %conv, 32767
  %shl = shl i32 %and, 13
  store i32 %shl, ptr %o, align 4
  %1 = load i32, ptr %o, align 4
  %and1 = and i32 260046848, %1
  store i32 %and1, ptr %exp, align 4
  %2 = load i32, ptr %o, align 4
  %add = add i32 %2, 939524096
  store i32 %add, ptr %o, align 4
  %3 = load i32, ptr %exp, align 4
  %cmp = icmp eq i32 %3, 260046848
  br i1 %cmp, label %if.then, label %if.else

if.then:                                          ; preds = %entry
  %4 = load i32, ptr %o, align 4
  %add2 = add i32 %4, 939524096
  store i32 %add2, ptr %o, align 4
  br label %if.end6

if.else:                                          ; preds = %entry
  %5 = load i32, ptr %exp, align 4
  %cmp3 = icmp eq i32 %5, 0
  br i1 %cmp3, label %if.then4, label %if.end

if.then4:                                         ; preds = %if.else
  %6 = load i32, ptr %o, align 4
  %add5 = add i32 %6, 8388608
  store i32 %add5, ptr %o, align 4
  %7 = load float, ptr @_ZZ26bcdec__half_to_float_quicktE5magic, align 4
  %8 = load float, ptr %o, align 4
  %sub = fsub float %8, %7
  store float %sub, ptr %o, align 4
  br label %if.end

if.end:                                           ; preds = %if.then4, %if.else
  br label %if.end6

if.end6:                                          ; preds = %if.end, %if.then
  %9 = load i16, ptr %half.addr, align 2
  %conv7 = zext i16 %9 to i32
  %and8 = and i32 %conv7, 32768
  %shl9 = shl i32 %and8, 16
  %10 = load i32, ptr %o, align 4
  %or = or i32 %10, %shl9
  store i32 %or, ptr %o, align 4
  %11 = load float, ptr %o, align 4
  ret float %11
}