; Function Attrs: mustprogress nofree norecurse nosync nounwind willreturn memory(none) uwtable
define hidden noundef float @_Z26bcdec__half_to_float_quickt(i16 noundef zeroext %half) local_unnamed_addr #8 {
entry:
  %conv = zext i16 %half to i32
  %and = shl nuw nsw i32 %conv, 13
  %and1 = and i32 %and, 260046848
  %cmp = icmp eq i32 %and1, 260046848
  br i1 %cmp, label %if.then, label %if.else

if.then:                                          ; preds = %entry
  %add2 = or i32 %and, 1879048192
  br label %if.end6

if.else:                                          ; preds = %entry
  %shl = and i32 %and, 268427264
  %add = add nuw nsw i32 %shl, 939524096
  %cmp3 = icmp eq i32 %and1, 0
  br i1 %cmp3, label %if.then4, label %if.end6

if.then4:                                         ; preds = %if.else
  %add5 = or i32 %and, 947912704
  %0 = bitcast i32 %add5 to float
  %sub = fadd float %0, 0xBF10000000000000
  %1 = bitcast float %sub to i32
  br label %if.end6

if.end6:                                          ; preds = %if.else, %if.then4, %if.then
  %o.sroa.0.0 = phi i32 [ %add2, %if.then ], [ %1, %if.then4 ], [ %add, %if.else ]
  %half.signext = sext i16 %half to i32
  %shl9 = and i32 %half.signext, -2147483648
  %or = or i32 %o.sroa.0.0, %shl9
  %2 = bitcast i32 %or to float
  ret float %2
}